; Function Attrs: nofree nounwind memory(readwrite, inaccessiblemem: none) uwtable
define hidden void @php_mail_log_crlf_to_spaces(ptr noundef %0) local_unnamed_addr #6 {
  %2 = tail call ptr @strpbrk(ptr noundef %0, ptr noundef nonnull @.str.18) #12
  %.not4 = icmp eq ptr %2, null
  br i1 %.not4, label %._crit_edge, label %.lr.ph

.lr.ph:                                           ; preds = %1, %.lr.ph
  %3 = phi ptr [ %4, %.lr.ph ], [ %2, %1 ]
  store i8 32, ptr %3, align 1
  %4 = tail call ptr @strpbrk(ptr noundef nonnull %3, ptr noundef nonnull @.str.18) #12
  %.not = icmp eq ptr %4, null
  br i1 %.not, label %._crit_edge, label %.lr.ph

._crit_edge:                                      ; preds = %.lr.ph, %1
  ret void
}